; Function Attrs: nounwind uwtable
define noalias ptr @l_Lean_Compiler_LCNF_checkDeadLocalDecls_visitParams___boxed(ptr noundef %0, ptr noundef %1) local_unnamed_addr #0 {
  %3 = getelementptr i8, ptr %0, i64 8
  %.val.i = load i64, ptr %3, align 8, !tbaa !13
  %.mask.i = and i64 %.val.i, 9223372036854775807
  %.not.i4 = icmp eq i64 %.mask.i, 0
  br i1 %.not.i4, label %lean_dec.exit28.i, label %lean_dec.exit.i

lean_dec.exit28.i:                                ; preds = %2
  tail call void @lean_inc_heartbeat() #4
  %4 = tail call noalias ptr @mi_malloc_small(i64 noundef 24) #4
  %5 = icmp eq ptr %4, null
  br i1 %5, label %6, label %lean_alloc_ctor.exit.i

6:                                                ; preds = %lean_dec.exit28.i
  tail call void @lean_internal_panic_out_of_memory() #5
  unreachable

lean_alloc_ctor.exit.i:                           ; preds = %lean_dec.exit28.i
  %7 = getelementptr inbounds nuw i8, ptr %4, i64 4
  store i32 1, ptr %4, align 4, !tbaa !4
  store i32 131096, ptr %7, align 4
  %8 = getelementptr inbounds nuw i8, ptr %4, i64 8
  store ptr inttoptr (i64 1 to ptr), ptr %8, align 8, !tbaa !9
  %9 = getelementptr inbounds nuw i8, ptr %4, i64 16
  store ptr %1, ptr %9, align 8, !tbaa !9
  br label %l_Lean_Compiler_LCNF_checkDeadLocalDecls_visitParams.exit

lean_dec.exit.i:                                  ; preds = %2
  %10 = tail call ptr @l_Array_foldlMUnsafe_fold___at_Lean_Compiler_LCNF_checkDeadLocalDecls_visitParams___spec__1(ptr noundef nonnull readonly %0, i64 noundef 0, i64 noundef %.mask.i, ptr noundef nonnull inttoptr (i64 1 to ptr), ptr noundef %1)
  br label %l_Lean_Compiler_LCNF_checkDeadLocalDecls_visitParams.exit

l_Lean_Compiler_LCNF_checkDeadLocalDecls_visitParams.exit: ; preds = %lean_alloc_ctor.exit.i, %lean_dec.exit.i
  %.0.i = phi ptr [ %4, %lean_alloc_ctor.exit.i ], [ %10, %lean_dec.exit.i ]
  %11 = ptrtoint ptr %0 to i64
  %12 = and i64 %11, 1
  %.not = icmp eq i64 %12, 0
  br i1 %.not, label %13, label %lean_dec.exit

13:                                               ; preds = %l_Lean_Compiler_LCNF_checkDeadLocalDecls_visitParams.exit
  %14 = load i32, ptr %0, align 4, !tbaa !4
  %15 = icmp sgt i32 %14, 1
  br i1 %15, label %16, label %18, !prof !12

16:                                               ; preds = %13
  %17 = add nsw i32 %14, -1
  store i32 %17, ptr %0, align 4, !tbaa !4
  br label %lean_dec.exit

18:                                               ; preds = %13
  %.not.i = icmp eq i32 %14, 0
  br i1 %.not.i, label %lean_dec.exit, label %19

19:                                               ; preds = %18
  tail call void @lean_dec_ref_cold(ptr noundef nonnull %0) #4
  br label %lean_dec.exit

lean_dec.exit:                                    ; preds = %19, %18, %16, %l_Lean_Compiler_LCNF_checkDeadLocalDecls_visitParams.exit
  ret ptr %.0.i
}